target datalayout = "e-m:e-p270:32:32-p271:32:32-p272:64:64-i64:64-i128:128-f80:128-n8:16:32:64-S128"
target triple = "x86_64-pc-linux-gnu"

%struct.__va_list_tag = type { i32, i32, ptr, ptr }

; Function Attrs: nounwind uwtable
define void @dt_util_str_cat(ptr noundef %0, ptr noundef %1, ...) #0 {
  %3 = alloca ptr, align 8
  %4 = alloca ptr, align 8
  %5 = alloca [1 x %struct.__va_list_tag], align 16
  %6 = alloca i64, align 8
  %7 = alloca i32, align 4
  %8 = alloca i32, align 4
  store ptr %0, ptr %3, align 8, !tbaa !11
  store ptr %1, ptr %4, align 8, !tbaa !6
  %9 = load ptr, ptr %3, align 8, !tbaa !11
  %10 = icmp ne ptr %9, null
  br i1 %10, label %12, label %11

11:                                               ; preds = %2
  br label %58

12:                                               ; preds = %2
  call void @llvm.lifetime.start.p0(i64 24, ptr %5) #18
  %13 = getelementptr inbounds [1 x %struct.__va_list_tag], ptr %5, i64 0, i64 0
  call void @llvm.va_start.p0(ptr %13)
  call void @llvm.lifetime.start.p0(i64 8, ptr %6) #18
  %14 = load ptr, ptr %3, align 8, !tbaa !11
  %15 = load ptr, ptr %14, align 8, !tbaa !6
  %16 = icmp ne ptr %15, null
  br i1 %16, label %17, label %21

17:                                               ; preds = %12
  %18 = load ptr, ptr %3, align 8, !tbaa !11
  %19 = load ptr, ptr %18, align 8, !tbaa !6
  %20 = call i64 @strlen(ptr noundef %19) #17
  br label %22

21:                                               ; preds = %12
  br label %22

22:                                               ; preds = %21, %17
  %23 = phi i64 [ %20, %17 ], [ 0, %21 ]
  store i64 %23, ptr %6, align 8, !tbaa !13
  call void @llvm.lifetime.start.p0(i64 4, ptr %7) #18
  %24 = load ptr, ptr %4, align 8, !tbaa !6
  %25 = getelementptr inbounds [1 x %struct.__va_list_tag], ptr %5, i64 0, i64 0
  %26 = call i32 @g_vsnprintf(ptr noundef null, i64 noundef 0, ptr noundef %24, ptr noundef %25)
  store i32 %26, ptr %7, align 4, !tbaa !15
  %27 = getelementptr inbounds [1 x %struct.__va_list_tag], ptr %5, i64 0, i64 0
  call void @llvm.va_end.p0(ptr %27)
  call void @llvm.lifetime.start.p0(i64 4, ptr %8) #18
  %28 = load i32, ptr %7, align 4, !tbaa !15
  %29 = sext i32 %28 to i64
  %30 = load i64, ptr %6, align 8, !tbaa !13
  %31 = add i64 %29, %30
  %32 = add i64 %31, 1
  %33 = trunc i64 %32 to i32
  store i32 %33, ptr %8, align 4, !tbaa !15
  %34 = load ptr, ptr %3, align 8, !tbaa !11
  %35 = load ptr, ptr %34, align 8, !tbaa !6
  %36 = load i32, ptr %8, align 4, !tbaa !15
  %37 = sext i32 %36 to i64
  %38 = call ptr @g_realloc(ptr noundef %35, i64 noundef %37)
  %39 = load ptr, ptr %3, align 8, !tbaa !11
  store ptr %38, ptr %39, align 8, !tbaa !6
  %40 = getelementptr inbounds [1 x %struct.__va_list_tag], ptr %5, i64 0, i64 0
  call void @llvm.va_start.p0(ptr %40)
  %41 = load ptr, ptr %3, align 8, !tbaa !11
  %42 = load ptr, ptr %41, align 8, !tbaa !6
  %43 = load i64, ptr %6, align 8, !tbaa !13
  %44 = getelementptr inbounds nuw i8, ptr %42, i64 %43
  %45 = load i32, ptr %7, align 4, !tbaa !15
  %46 = add nsw i32 %45, 1
  %47 = sext i32 %46 to i64
  %48 = load ptr, ptr %4, align 8, !tbaa !6
  %49 = getelementptr inbounds [1 x %struct.__va_list_tag], ptr %5, i64 0, i64 0
  %50 = call i32 @g_vsnprintf(ptr noundef %44, i64 noundef %47, ptr noundef %48, ptr noundef %49)
  %51 = getelementptr inbounds [1 x %struct.__va_list_tag], ptr %5, i64 0, i64 0
  call void @llvm.va_end.p0(ptr %51)
  %52 = load ptr, ptr %3, align 8, !tbaa !11
  %53 = load ptr, ptr %52, align 8, !tbaa !6
  %54 = load i32, ptr %8, align 4, !tbaa !15
  %55 = sub nsw i32 %54, 1
  %56 = sext i32 %55 to i64
  %57 = getelementptr inbounds i8, ptr %53, i64 %56
  store i8 0, ptr %57, align 1, !tbaa !18
  call void @llvm.lifetime.end.p0(i64 4, ptr %8) #18
  call void @llvm.lifetime.end.p0(i64 4, ptr %7) #18
  call void @llvm.lifetime.end.p0(i64 8, ptr %6) #18
  call void @llvm.lifetime.end.p0(i64 24, ptr %5) #18
  br label %58

58:                                               ; preds = %22, %11
  ret void
}