; Function Attrs: nounwind uwtable
define void @dt_util_str_cat(ptr noundef %0, ptr noundef %1, ...) local_unnamed_addr #0 {
  %3 = alloca [1 x %struct.__va_list_tag], align 16
  %.not = icmp eq ptr %0, null
  br i1 %.not, label %25, label %4

4:                                                ; preds = %2
  call void @llvm.lifetime.start.p0(i64 24, ptr nonnull %3) #27
  call void @llvm.va_start.p0(ptr nonnull %3)
  %5 = load ptr, ptr %0, align 8, !tbaa !6
  %.not15 = icmp eq ptr %5, null
  br i1 %.not15, label %8, label %6

6:                                                ; preds = %4
  %7 = call i64 @strlen(ptr noundef nonnull dereferenceable(1) %5) #26
  br label %8

8:                                                ; preds = %4, %6
  %9 = phi i64 [ %7, %6 ], [ 0, %4 ]
  %10 = call i32 @g_vsnprintf(ptr noundef null, i64 noundef 0, ptr noundef %1, ptr noundef nonnull %3) #27
  call void @llvm.va_end.p0(ptr nonnull %3)
  %11 = trunc i64 %9 to i32
  %12 = add i32 %10, %11
  %13 = add i32 %12, 1
  %14 = load ptr, ptr %0, align 8, !tbaa !6
  %15 = sext i32 %13 to i64
  %16 = call ptr @g_realloc(ptr noundef %14, i64 noundef %15) #27
  store ptr %16, ptr %0, align 8, !tbaa !6
  call void @llvm.va_start.p0(ptr nonnull %3)
  %17 = load ptr, ptr %0, align 8, !tbaa !6
  %18 = getelementptr inbounds nuw i8, ptr %17, i64 %9
  %19 = add nsw i32 %10, 1
  %20 = sext i32 %19 to i64
  %21 = call i32 @g_vsnprintf(ptr noundef %18, i64 noundef %20, ptr noundef %1, ptr noundef nonnull %3) #27
  call void @llvm.va_end.p0(ptr nonnull %3)
  %22 = load ptr, ptr %0, align 8, !tbaa !6
  %23 = sext i32 %12 to i64
  %24 = getelementptr inbounds i8, ptr %22, i64 %23
  store i8 0, ptr %24, align 1, !tbaa !11
  call void @llvm.lifetime.end.p0(i64 24, ptr nonnull %3) #27
  br label %25

25:                                               ; preds = %2, %8
  ret void
}